; Function Attrs: mustprogress uwtable
define void @cvFlip(ptr noundef %0, ptr noundef %1, i32 noundef %2) local_unnamed_addr #5 personality ptr @__gxx_personality_v0 {
  %4 = alloca %"class.cv::Mat", align 8
  %5 = alloca %"class.cv::Mat", align 8
  %6 = alloca %"class.cv::Mat", align 8
  %7 = alloca %"class.std::__cxx11::basic_string", align 8
  %8 = alloca %"class.std::allocator", align 1
  %9 = alloca %"class.cv::_InputArray", align 8
  %10 = alloca %"class.cv::_OutputArray", align 8
  call void @_ZN2cv10cvarrToMatEPKvbbiPNS_10AutoBufferIdLm136EEE(ptr dead_on_unwind nonnull writable sret(%"class.cv::Mat") align 8 %4, ptr noundef %0, i1 noundef zeroext false, i1 noundef zeroext true, i32 noundef 0, ptr noundef null)
  call void @_ZN2cv3MatC1Ev(ptr noundef nonnull align 8 dereferenceable(96) %5) #17
  %.not = icmp eq ptr %1, null
  br i1 %.not, label %11, label %15

11:                                               ; preds = %3
  %12 = invoke noundef nonnull align 8 dereferenceable(96) ptr @_ZN2cv3MataSERKS0_(ptr noundef nonnull align 8 dereferenceable(96) %5, ptr noundef nonnull align 8 dereferenceable(96) %4)
          to label %21 unwind label %13

13:                                               ; preds = %15, %11
  %14 = landingpad { ptr, i32 }
          cleanup
  br label %54

15:                                               ; preds = %3
  invoke void @_ZN2cv10cvarrToMatEPKvbbiPNS_10AutoBufferIdLm136EEE(ptr dead_on_unwind nonnull writable sret(%"class.cv::Mat") align 8 %6, ptr noundef nonnull %1, i1 noundef zeroext false, i1 noundef zeroext true, i32 noundef 0, ptr noundef null)
          to label %16 unwind label %13

16:                                               ; preds = %15
  %17 = invoke noundef nonnull align 8 dereferenceable(96) ptr @_ZN2cv3MataSEOS0_(ptr noundef nonnull align 8 dereferenceable(96) %5, ptr noundef nonnull align 8 dereferenceable(96) %6)
          to label %18 unwind label %19

18:                                               ; preds = %16
  call void @_ZN2cv3MatD1Ev(ptr noundef nonnull align 8 dereferenceable(96) %6) #17
  br label %21

19:                                               ; preds = %16
  %20 = landingpad { ptr, i32 }
          cleanup
  call void @_ZN2cv3MatD1Ev(ptr noundef nonnull align 8 dereferenceable(96) %6) #17
  br label %54

21:                                               ; preds = %18, %11
  %22 = load i32, ptr %4, align 8
  %23 = load i32, ptr %5, align 8
  %24 = xor i32 %23, %22
  %25 = and i32 %24, 4095
  %26 = icmp eq i32 %25, 0
  br i1 %26, label %27, label %.critedge

27:                                               ; preds = %21
  %28 = getelementptr inbounds i8, ptr %4, i64 64
  %29 = load ptr, ptr %28, align 8
  %30 = getelementptr inbounds i8, ptr %5, i64 64
  %31 = load ptr, ptr %30, align 8
  %32 = load <2 x i32>, ptr %29, align 4
  %33 = load <2 x i32>, ptr %31, align 4
  %34 = icmp eq <2 x i32> %32, %33
  %35 = extractelement <2 x i1> %34, i64 0
  %36 = extractelement <2 x i1> %34, i64 1
  %37 = select i1 %36, i1 %35, i1 false
  br i1 %37, label %45, label %.critedge

.critedge:                                        ; preds = %21, %27
  call void @_ZNSaIcEC1Ev(ptr noundef nonnull align 1 dereferenceable(1) %8) #17
  invoke void @_ZNSt7__cxx1112basic_stringIcSt11char_traitsIcESaIcEEC1EPKcRKS3_(ptr noundef nonnull align 8 dereferenceable(32) %7, ptr noundef nonnull @.str.33, ptr noundef nonnull align 1 dereferenceable(1) %8)
          to label %38 unwind label %40

38:                                               ; preds = %.critedge
  invoke void @_ZN2cv5errorEiRKNSt7__cxx1112basic_stringIcSt11char_traitsIcESaIcEEEPKcS9_i(i32 noundef -215, ptr noundef nonnull align 8 dereferenceable(32) %7, ptr noundef nonnull @__func__.cvFlip, ptr noundef nonnull @.str.1, i32 noundef 1189) #18
          to label %39 unwind label %42

39:                                               ; preds = %38
  unreachable

40:                                               ; preds = %.critedge
  %41 = landingpad { ptr, i32 }
          cleanup
  br label %44

42:                                               ; preds = %38
  %43 = landingpad { ptr, i32 }
          cleanup
  call void @_ZNSt7__cxx1112basic_stringIcSt11char_traitsIcESaIcEED1Ev(ptr noundef nonnull align 8 dereferenceable(32) %7) #17
  br label %44

44:                                               ; preds = %42, %40
  %.pn = phi { ptr, i32 } [ %43, %42 ], [ %41, %40 ]
  call void @_ZNSaIcED1Ev(ptr noundef nonnull align 1 dereferenceable(1) %8) #17
  br label %54

45:                                               ; preds = %27
  %46 = getelementptr inbounds i8, ptr %9, i64 16
  store i32 0, ptr %46, align 8
  %47 = getelementptr inbounds i8, ptr %9, i64 20
  store i32 0, ptr %47, align 4
  store i32 16842752, ptr %9, align 8
  %48 = getelementptr inbounds i8, ptr %9, i64 8
  store ptr %4, ptr %48, align 8
  %49 = getelementptr inbounds i8, ptr %10, i64 8
  %50 = getelementptr inbounds i8, ptr %10, i64 16
  store i64 0, ptr %50, align 8
  store i32 33619968, ptr %10, align 8
  store ptr %5, ptr %49, align 8
  invoke void @_ZN2cv4flipERKNS_11_InputArrayERKNS_12_OutputArrayEi(ptr noundef nonnull align 8 dereferenceable(24) %9, ptr noundef nonnull align 8 dereferenceable(24) %10, i32 noundef %2)
          to label %51 unwind label %52

51:                                               ; preds = %45
  call void @_ZN2cv3MatD1Ev(ptr noundef nonnull align 8 dereferenceable(96) %5) #17
  call void @_ZN2cv3MatD1Ev(ptr noundef nonnull align 8 dereferenceable(96) %4) #17
  ret void

52:                                               ; preds = %45
  %53 = landingpad { ptr, i32 }
          cleanup
  br label %54

54:                                               ; preds = %52, %44, %19, %13
  %.pn10.pn = phi { ptr, i32 } [ %14, %13 ], [ %.pn, %44 ], [ %20, %19 ], [ %53, %52 ]
  call void @_ZN2cv3MatD1Ev(ptr noundef nonnull align 8 dereferenceable(96) %5) #17
  call void @_ZN2cv3MatD1Ev(ptr noundef nonnull align 8 dereferenceable(96) %4) #17
  resume { ptr, i32 } %.pn10.pn
}